target datalayout = "e-m:e-p270:32:32-p271:32:32-p272:64:64-i64:64-i128:128-f80:128-n8:16:32:64-S128"
target triple = "x86_64-pc-linux-gnu"

%struct._exr_decode_pipeline = type { i64, ptr, i16, i16, i32, ptr, %struct.exr_chunk_info_t, i32, i32, i64, ptr, ptr, i64, ptr, i64, ptr, i64, ptr, i64, ptr, i64, ptr, i64, ptr, ptr, ptr, ptr, ptr, ptr, [5 x %struct.exr_coding_channel_info_t] }
%struct.exr_chunk_info_t = type { i32, i32, i32, i32, i32, i8, i8, i8, i8, i64, i64, i64, i64, i64 }
%struct.exr_coding_channel_info_t = type { ptr, i32, i32, i32, i32, i8, i8, i16, i16, i16, i32, i32, %union.anon }
%union.anon = type { ptr }
%union.imath_half_uif = type { i32 }

; Function Attrs: inlinehint nounwind uwtable
define internal float @imath_half_to_float(i16 noundef zeroext %0) #2 {
  %2 = alloca i16, align 2
  %3 = alloca %union.imath_half_uif, align 4
  %4 = alloca i32, align 4
  %5 = alloca i32, align 4
  store i16 %0, ptr %2, align 2, !tbaa !44
  call void @llvm.lifetime.start.p0(i64 4, ptr %3) #6
  call void @llvm.lifetime.start.p0(i64 4, ptr %4) #6
  %6 = load i16, ptr %2, align 2, !tbaa !44
  %7 = zext i16 %6 to i32
  %8 = shl i32 %7, 17
  %9 = lshr i32 %8, 4
  store i32 %9, ptr %4, align 4, !tbaa !8
  %10 = load i16, ptr %2, align 2, !tbaa !44
  %11 = zext i16 %10 to i32
  %12 = ashr i32 %11, 15
  %13 = shl i32 %12, 31
  store i32 %13, ptr %3, align 4, !tbaa !10
  %14 = load i32, ptr %4, align 4, !tbaa !8
  %15 = icmp uge i32 %14, 8388608
  %16 = zext i1 %15 to i32
  %17 = sext i32 %16 to i64
  %18 = call i64 @llvm.expect.i64(i64 %17, i64 1)
  %19 = icmp ne i64 %18, 0
  br i1 %19, label %20, label %37

20:                                               ; preds = %1
  %21 = load i32, ptr %4, align 4, !tbaa !8
  %22 = load i32, ptr %3, align 4, !tbaa !10
  %23 = or i32 %22, %21
  store i32 %23, ptr %3, align 4, !tbaa !10
  %24 = load i32, ptr %4, align 4, !tbaa !8
  %25 = icmp ult i32 %24, 260046848
  %26 = zext i1 %25 to i32
  %27 = sext i32 %26 to i64
  %28 = call i64 @llvm.expect.i64(i64 %27, i64 1)
  %29 = icmp ne i64 %28, 0
  br i1 %29, label %30, label %33

30:                                               ; preds = %20
  %31 = load i32, ptr %3, align 4, !tbaa !10
  %32 = add i32 %31, 939524096
  store i32 %32, ptr %3, align 4, !tbaa !10
  br label %36

33:                                               ; preds = %20
  %34 = load i32, ptr %3, align 4, !tbaa !10
  %35 = or i32 %34, 2139095040
  store i32 %35, ptr %3, align 4, !tbaa !10
  br label %36

36:                                               ; preds = %33, %30
  br label %57

37:                                               ; preds = %1
  %38 = load i32, ptr %4, align 4, !tbaa !8
  %39 = icmp ne i32 %38, 0
  br i1 %39, label %40, label %56

40:                                               ; preds = %37
  call void @llvm.lifetime.start.p0(i64 4, ptr %5) #6
  %41 = load i32, ptr %4, align 4, !tbaa !8
  %42 = call i32 @llvm.ctlz.i32(i32 %41, i1 true)
  store i32 %42, ptr %5, align 4, !tbaa !8
  %43 = load i32, ptr %5, align 4, !tbaa !8
  %44 = sub i32 %43, 8
  store i32 %44, ptr %5, align 4, !tbaa !8
  %45 = load i32, ptr %3, align 4, !tbaa !10
  %46 = or i32 %45, 947912704
  store i32 %46, ptr %3, align 4, !tbaa !10
  %47 = load i32, ptr %4, align 4, !tbaa !8
  %48 = load i32, ptr %5, align 4, !tbaa !8
  %49 = shl i32 %47, %48
  %50 = load i32, ptr %3, align 4, !tbaa !10
  %51 = or i32 %50, %49
  store i32 %51, ptr %3, align 4, !tbaa !10
  %52 = load i32, ptr %5, align 4, !tbaa !8
  %53 = shl i32 %52, 23
  %54 = load i32, ptr %3, align 4, !tbaa !10
  %55 = sub i32 %54, %53
  store i32 %55, ptr %3, align 4, !tbaa !10
  call void @llvm.lifetime.end.p0(i64 4, ptr %5) #6
  br label %56

56:                                               ; preds = %40, %37
  br label %57

57:                                               ; preds = %56, %36
  %58 = load float, ptr %3, align 4, !tbaa !10
  call void @llvm.lifetime.end.p0(i64 4, ptr %4) #6
  call void @llvm.lifetime.end.p0(i64 4, ptr %3) #6
  ret float %58
}

; Function Attrs: inlinehint nounwind uwtable
define internal zeroext i16 @__uint16_identity(i16 noundef zeroext %0) #2 {
  %2 = alloca i16, align 2
  store i16 %0, ptr %2, align 2, !tbaa !44
  %3 = load i16, ptr %2, align 2, !tbaa !44
  ret i16 %3
}

; Function Attrs: inlinehint nounwind uwtable
define internal float @half_to_float(i16 noundef zeroext %0) #2 {
  %2 = alloca i16, align 2
  store i16 %0, ptr %2, align 2, !tbaa !44
  %3 = load i16, ptr %2, align 2, !tbaa !44
  %4 = call float @imath_half_to_float(i16 noundef zeroext %3)
  ret float %4
}

; Function Attrs: inlinehint nounwind uwtable
define internal zeroext i16 @one_to_native16(i16 noundef zeroext %0) #2 {
  %2 = alloca i16, align 2
  store i16 %0, ptr %2, align 2, !tbaa !44
  %3 = load i16, ptr %2, align 2, !tbaa !44
  %4 = call zeroext i16 @__uint16_identity(i16 noundef zeroext %3)
  ret i16 %4
}

; Function Attrs: nounwind uwtable
define internal i32 @unpack_half_to_float_4chan_interleave_rev(ptr noundef %0) #0 {
  %2 = alloca ptr, align 8
  %3 = alloca ptr, align 8
  %4 = alloca ptr, align 8
  %5 = alloca ptr, align 8
  %6 = alloca ptr, align 8
  %7 = alloca ptr, align 8
  %8 = alloca ptr, align 8
  %9 = alloca i32, align 4
  %10 = alloca i32, align 4
  %11 = alloca i32, align 4
  %12 = alloca i32, align 4
  %13 = alloca i32, align 4
  %14 = alloca ptr, align 8
  %15 = alloca i32, align 4
  store ptr %0, ptr %2, align 8, !tbaa !3
  call void @llvm.lifetime.start.p0(i64 8, ptr %3) #6
  %16 = load ptr, ptr %2, align 8, !tbaa !3
  %17 = getelementptr inbounds nuw %struct._exr_decode_pipeline, ptr %16, i32 0, i32 13
  %18 = load ptr, ptr %17, align 8, !tbaa !19
  store ptr %18, ptr %3, align 8, !tbaa !20
  call void @llvm.lifetime.start.p0(i64 8, ptr %4) #6
  call void @llvm.lifetime.start.p0(i64 8, ptr %5) #6
  call void @llvm.lifetime.start.p0(i64 8, ptr %6) #6
  call void @llvm.lifetime.start.p0(i64 8, ptr %7) #6
  call void @llvm.lifetime.start.p0(i64 8, ptr %8) #6
  call void @llvm.lifetime.start.p0(i64 4, ptr %9) #6
  call void @llvm.lifetime.start.p0(i64 4, ptr %10) #6
  call void @llvm.lifetime.start.p0(i64 4, ptr %11) #6
  %19 = load ptr, ptr %2, align 8, !tbaa !3
  %20 = getelementptr inbounds nuw %struct._exr_decode_pipeline, ptr %19, i32 0, i32 1
  %21 = load ptr, ptr %20, align 8, !tbaa !28
  %22 = getelementptr inbounds %struct.exr_coding_channel_info_t, ptr %21, i64 0
  %23 = getelementptr inbounds nuw %struct.exr_coding_channel_info_t, ptr %22, i32 0, i32 2
  %24 = load i32, ptr %23, align 4, !tbaa !72
  store i32 %24, ptr %9, align 4, !tbaa !8
  %25 = load ptr, ptr %2, align 8, !tbaa !3
  %26 = getelementptr inbounds nuw %struct._exr_decode_pipeline, ptr %25, i32 0, i32 6
  %27 = getelementptr inbounds nuw %struct.exr_chunk_info_t, ptr %26, i32 0, i32 3
  %28 = load i32, ptr %27, align 4, !tbaa !25
  %29 = load ptr, ptr %2, align 8, !tbaa !3
  %30 = getelementptr inbounds nuw %struct._exr_decode_pipeline, ptr %29, i32 0, i32 8
  %31 = load i32, ptr %30, align 4, !tbaa !26
  %32 = sub nsw i32 %28, %31
  store i32 %32, ptr %10, align 4, !tbaa !8
  %33 = load ptr, ptr %2, align 8, !tbaa !3
  %34 = getelementptr inbounds nuw %struct._exr_decode_pipeline, ptr %33, i32 0, i32 1
  %35 = load ptr, ptr %34, align 8, !tbaa !28
  %36 = getelementptr inbounds %struct.exr_coding_channel_info_t, ptr %35, i64 0
  %37 = getelementptr inbounds nuw %struct.exr_coding_channel_info_t, ptr %36, i32 0, i32 11
  %38 = load i32, ptr %37, align 4, !tbaa !37
  store i32 %38, ptr %11, align 4, !tbaa !8
  %39 = load ptr, ptr %2, align 8, !tbaa !3
  %40 = getelementptr inbounds nuw %struct._exr_decode_pipeline, ptr %39, i32 0, i32 1
  %41 = load ptr, ptr %40, align 8, !tbaa !28
  %42 = getelementptr inbounds %struct.exr_coding_channel_info_t, ptr %41, i64 3
  %43 = getelementptr inbounds nuw %struct.exr_coding_channel_info_t, ptr %42, i32 0, i32 12
  %44 = load ptr, ptr %43, align 8, !tbaa !10
  store ptr %44, ptr %8, align 8, !tbaa !20
  %45 = load ptr, ptr %2, align 8, !tbaa !3
  %46 = getelementptr inbounds nuw %struct._exr_decode_pipeline, ptr %45, i32 0, i32 7
  %47 = load i32, ptr %46, align 8, !tbaa !27
  %48 = load i32, ptr %9, align 4, !tbaa !8
  %49 = mul nsw i32 %47, %48
  %50 = mul nsw i32 %49, 8
  %51 = load ptr, ptr %3, align 8, !tbaa !20
  %52 = sext i32 %50 to i64
  %53 = getelementptr inbounds i8, ptr %51, i64 %52
  store ptr %53, ptr %3, align 8, !tbaa !20
  call void @llvm.lifetime.start.p0(i64 4, ptr %12) #6
  %54 = load ptr, ptr %2, align 8, !tbaa !3
  %55 = getelementptr inbounds nuw %struct._exr_decode_pipeline, ptr %54, i32 0, i32 7
  %56 = load i32, ptr %55, align 8, !tbaa !27
  store i32 %56, ptr %12, align 4, !tbaa !8
  br label %57

57:                                               ; preds = %134, %1
  %58 = load i32, ptr %12, align 4, !tbaa !8
  %59 = load i32, ptr %10, align 4, !tbaa !8
  %60 = icmp slt i32 %58, %59
  br i1 %60, label %62, label %61

61:                                               ; preds = %57
  store i32 2, ptr %13, align 4
  call void @llvm.lifetime.end.p0(i64 4, ptr %12) #6
  br label %137

62:                                               ; preds = %57
  call void @llvm.lifetime.start.p0(i64 8, ptr %14) #6
  %63 = load ptr, ptr %8, align 8, !tbaa !20
  store ptr %63, ptr %14, align 8, !tbaa !73
  %64 = load ptr, ptr %3, align 8, !tbaa !20
  store ptr %64, ptr %4, align 8, !tbaa !42
  %65 = load ptr, ptr %4, align 8, !tbaa !42
  %66 = load i32, ptr %9, align 4, !tbaa !8
  %67 = sext i32 %66 to i64
  %68 = getelementptr inbounds i16, ptr %65, i64 %67
  store ptr %68, ptr %5, align 8, !tbaa !42
  %69 = load ptr, ptr %5, align 8, !tbaa !42
  %70 = load i32, ptr %9, align 4, !tbaa !8
  %71 = sext i32 %70 to i64
  %72 = getelementptr inbounds i16, ptr %69, i64 %71
  store ptr %72, ptr %6, align 8, !tbaa !42
  %73 = load ptr, ptr %6, align 8, !tbaa !42
  %74 = load i32, ptr %9, align 4, !tbaa !8
  %75 = sext i32 %74 to i64
  %76 = getelementptr inbounds i16, ptr %73, i64 %75
  store ptr %76, ptr %7, align 8, !tbaa !42
  %77 = load i32, ptr %9, align 4, !tbaa !8
  %78 = mul nsw i32 %77, 8
  %79 = load ptr, ptr %3, align 8, !tbaa !20
  %80 = sext i32 %78 to i64
  %81 = getelementptr inbounds i8, ptr %79, i64 %80
  store ptr %81, ptr %3, align 8, !tbaa !20
  call void @llvm.lifetime.start.p0(i64 4, ptr %15) #6
  store i32 0, ptr %15, align 4, !tbaa !8
  br label %82

82:                                               ; preds = %126, %62
  %83 = load i32, ptr %15, align 4, !tbaa !8
  %84 = load i32, ptr %9, align 4, !tbaa !8
  %85 = icmp slt i32 %83, %84
  br i1 %85, label %87, label %86

86:                                               ; preds = %82
  store i32 5, ptr %13, align 4
  call void @llvm.lifetime.end.p0(i64 4, ptr %15) #6
  br label %129

87:                                               ; preds = %82
  %88 = load ptr, ptr %7, align 8, !tbaa !42
  %89 = load i32, ptr %15, align 4, !tbaa !8
  %90 = sext i32 %89 to i64
  %91 = getelementptr inbounds i16, ptr %88, i64 %90
  %92 = load i16, ptr %91, align 2, !tbaa !44
  %93 = call zeroext i16 @one_to_native16(i16 noundef zeroext %92)
  %94 = call float @half_to_float(i16 noundef zeroext %93)
  %95 = load ptr, ptr %14, align 8, !tbaa !73
  %96 = getelementptr inbounds float, ptr %95, i64 0
  store float %94, ptr %96, align 4, !tbaa !46
  %97 = load ptr, ptr %6, align 8, !tbaa !42
  %98 = load i32, ptr %15, align 4, !tbaa !8
  %99 = sext i32 %98 to i64
  %100 = getelementptr inbounds i16, ptr %97, i64 %99
  %101 = load i16, ptr %100, align 2, !tbaa !44
  %102 = call zeroext i16 @one_to_native16(i16 noundef zeroext %101)
  %103 = call float @half_to_float(i16 noundef zeroext %102)
  %104 = load ptr, ptr %14, align 8, !tbaa !73
  %105 = getelementptr inbounds float, ptr %104, i64 1
  store float %103, ptr %105, align 4, !tbaa !46
  %106 = load ptr, ptr %5, align 8, !tbaa !42
  %107 = load i32, ptr %15, align 4, !tbaa !8
  %108 = sext i32 %107 to i64
  %109 = getelementptr inbounds i16, ptr %106, i64 %108
  %110 = load i16, ptr %109, align 2, !tbaa !44
  %111 = call zeroext i16 @one_to_native16(i16 noundef zeroext %110)
  %112 = call float @half_to_float(i16 noundef zeroext %111)
  %113 = load ptr, ptr %14, align 8, !tbaa !73
  %114 = getelementptr inbounds float, ptr %113, i64 2
  store float %112, ptr %114, align 4, !tbaa !46
  %115 = load ptr, ptr %4, align 8, !tbaa !42
  %116 = load i32, ptr %15, align 4, !tbaa !8
  %117 = sext i32 %116 to i64
  %118 = getelementptr inbounds i16, ptr %115, i64 %117
  %119 = load i16, ptr %118, align 2, !tbaa !44
  %120 = call zeroext i16 @one_to_native16(i16 noundef zeroext %119)
  %121 = call float @half_to_float(i16 noundef zeroext %120)
  %122 = load ptr, ptr %14, align 8, !tbaa !73
  %123 = getelementptr inbounds float, ptr %122, i64 3
  store float %121, ptr %123, align 4, !tbaa !46
  %124 = load ptr, ptr %14, align 8, !tbaa !73
  %125 = getelementptr inbounds float, ptr %124, i64 4
  store ptr %125, ptr %14, align 8, !tbaa !73
  br label %126

126:                                              ; preds = %87
  %127 = load i32, ptr %15, align 4, !tbaa !8
  %128 = add nsw i32 %127, 1
  store i32 %128, ptr %15, align 4, !tbaa !8
  br label %82, !llvm.loop !79

129:                                              ; preds = %86
  %130 = load i32, ptr %11, align 4, !tbaa !8
  %131 = load ptr, ptr %8, align 8, !tbaa !20
  %132 = sext i32 %130 to i64
  %133 = getelementptr inbounds i8, ptr %131, i64 %132
  store ptr %133, ptr %8, align 8, !tbaa !20
  call void @llvm.lifetime.end.p0(i64 8, ptr %14) #6
  br label %134

134:                                              ; preds = %129
  %135 = load i32, ptr %12, align 4, !tbaa !8
  %136 = add nsw i32 %135, 1
  store i32 %136, ptr %12, align 4, !tbaa !8
  br label %57, !llvm.loop !80

137:                                              ; preds = %61
  store i32 1, ptr %13, align 4
  call void @llvm.lifetime.end.p0(i64 4, ptr %11) #6
  call void @llvm.lifetime.end.p0(i64 4, ptr %10) #6
  call void @llvm.lifetime.end.p0(i64 4, ptr %9) #6
  call void @llvm.lifetime.end.p0(i64 8, ptr %8) #6
  call void @llvm.lifetime.end.p0(i64 8, ptr %7) #6
  call void @llvm.lifetime.end.p0(i64 8, ptr %6) #6
  call void @llvm.lifetime.end.p0(i64 8, ptr %5) #6
  call void @llvm.lifetime.end.p0(i64 8, ptr %4) #6
  call void @llvm.lifetime.end.p0(i64 8, ptr %3) #6
  ret i32 0
}