; Function Attrs: nofree norecurse nosync nounwind memory(readwrite, inaccessiblemem: none) uwtable
define internal noundef i32 @unpack_half_to_float_4chan_interleave_rev(ptr noundef readonly captures(none) %0) #1 {
  %2 = getelementptr inbounds nuw i8, ptr %0, i64 8
  %3 = load ptr, ptr %2, align 8, !tbaa !22
  %4 = getelementptr inbounds nuw i8, ptr %3, i64 12
  %5 = load i32, ptr %4, align 4, !tbaa !65
  %6 = getelementptr inbounds nuw i8, ptr %0, i64 44
  %7 = load i32, ptr %6, align 4, !tbaa !16
  %8 = getelementptr inbounds nuw i8, ptr %0, i64 100
  %9 = load i32, ptr %8, align 4, !tbaa !17
  %10 = sub nsw i32 %7, %9
  %11 = getelementptr inbounds nuw i8, ptr %0, i64 96
  %12 = load i32, ptr %11, align 8, !tbaa !19
  %13 = icmp slt i32 %12, %10
  br i1 %13, label %.lr.ph62, label %._crit_edge63

.lr.ph62:                                         ; preds = %1
  %14 = shl i32 %5, 3
  %15 = getelementptr inbounds nuw i8, ptr %3, i64 36
  %16 = load i32, ptr %15, align 4, !tbaa !32
  %17 = sext i32 %5 to i64
  %18 = sext i32 %14 to i64
  %19 = icmp sgt i32 %5, 0
  %20 = sext i32 %16 to i64
  br i1 %19, label %.lr.ph.us.preheader, label %._crit_edge63

.lr.ph.us.preheader:                              ; preds = %.lr.ph62
  %21 = getelementptr inbounds nuw i8, ptr %3, i64 184
  %22 = load ptr, ptr %21, align 8, !tbaa !3
  %23 = getelementptr inbounds nuw i8, ptr %0, i64 136
  %24 = load ptr, ptr %23, align 8, !tbaa !21
  %25 = mul i32 %14, %12
  %26 = sext i32 %25 to i64
  %27 = getelementptr inbounds i8, ptr %24, i64 %26
  %wide.trip.count = zext nneg i32 %5 to i64
  br label %.lr.ph.us

.lr.ph.us:                                        ; preds = %.lr.ph.us.preheader, %._crit_edge.us
  %.04160.us = phi i32 [ %130, %._crit_edge.us ], [ %12, %.lr.ph.us.preheader ]
  %.04259.us = phi ptr [ %128, %._crit_edge.us ], [ %27, %.lr.ph.us.preheader ]
  %.04358.us = phi ptr [ %129, %._crit_edge.us ], [ %22, %.lr.ph.us.preheader ]
  %28 = getelementptr inbounds nuw i16, ptr %.04259.us, i64 %17
  %29 = getelementptr inbounds nuw i16, ptr %28, i64 %17
  %30 = getelementptr inbounds nuw i16, ptr %29, i64 %17
  br label %31

31:                                               ; preds = %.lr.ph.us, %half_to_float.exit55.us
  %indvars.iv = phi i64 [ 0, %.lr.ph.us ], [ %indvars.iv.next, %half_to_float.exit55.us ]
  %.04056.us = phi ptr [ %.04358.us, %.lr.ph.us ], [ %127, %half_to_float.exit55.us ]
  %32 = getelementptr inbounds nuw i16, ptr %30, i64 %indvars.iv
  %33 = load i16, ptr %32, align 2, !tbaa !36
  %34 = zext i16 %33 to i32
  %35 = shl nuw nsw i32 %34, 13
  %36 = and i32 %35, 268427264
  %.signext.i.i.us = sext i16 %33 to i32
  %37 = and i32 %.signext.i.i.us, -2147483648
  %38 = icmp samesign ugt i32 %36, 8388607
  br i1 %38, label %48, label %39, !prof !38

39:                                               ; preds = %31
  %.not.i.i.us = icmp eq i32 %36, 0
  br i1 %.not.i.i.us, label %half_to_float.exit.us, label %40

40:                                               ; preds = %39
  %41 = tail call range(i32 9, 33) i32 @llvm.ctlz.i32(i32 %36, i1 true)
  %42 = add nsw i32 %41, -8
  %43 = shl i32 %36, %42
  %44 = or i32 %37, %43
  %45 = or i32 %44, 947912704
  %46 = shl nuw nsw i32 %42, 23
  %47 = sub nuw i32 %45, %46
  br label %half_to_float.exit.us

48:                                               ; preds = %31
  %49 = or disjoint i32 %36, %37
  %50 = icmp samesign ult i32 %36, 260046848
  br i1 %50, label %53, label %51, !prof !38

51:                                               ; preds = %48
  %52 = or i32 %49, 2139095040
  br label %half_to_float.exit.us

53:                                               ; preds = %48
  %54 = add nuw nsw i32 %49, 939524096
  br label %half_to_float.exit.us

half_to_float.exit.us:                            ; preds = %53, %51, %40, %39
  %.sroa.0.0.i.i.us = phi i32 [ %54, %53 ], [ %52, %51 ], [ %47, %40 ], [ %37, %39 ]
  store i32 %.sroa.0.0.i.i.us, ptr %.04056.us, align 4, !tbaa !39
  %55 = getelementptr inbounds nuw i16, ptr %29, i64 %indvars.iv
  %56 = load i16, ptr %55, align 2, !tbaa !36
  %57 = zext i16 %56 to i32
  %58 = shl nuw nsw i32 %57, 13
  %59 = and i32 %58, 268427264
  %.signext.i.i44.us = sext i16 %56 to i32
  %60 = and i32 %.signext.i.i44.us, -2147483648
  %61 = icmp samesign ugt i32 %59, 8388607
  br i1 %61, label %71, label %62, !prof !38

62:                                               ; preds = %half_to_float.exit.us
  %.not.i.i45.us = icmp eq i32 %59, 0
  br i1 %.not.i.i45.us, label %half_to_float.exit47.us, label %63

63:                                               ; preds = %62
  %64 = tail call range(i32 9, 33) i32 @llvm.ctlz.i32(i32 %59, i1 true)
  %65 = add nsw i32 %64, -8
  %66 = shl i32 %59, %65
  %67 = or i32 %60, %66
  %68 = or i32 %67, 947912704
  %69 = shl nuw nsw i32 %65, 23
  %70 = sub nuw i32 %68, %69
  br label %half_to_float.exit47.us

71:                                               ; preds = %half_to_float.exit.us
  %72 = or disjoint i32 %59, %60
  %73 = icmp samesign ult i32 %59, 260046848
  br i1 %73, label %76, label %74, !prof !38

74:                                               ; preds = %71
  %75 = or i32 %72, 2139095040
  br label %half_to_float.exit47.us

76:                                               ; preds = %71
  %77 = add nuw nsw i32 %72, 939524096
  br label %half_to_float.exit47.us

half_to_float.exit47.us:                          ; preds = %76, %74, %63, %62
  %.sroa.0.0.i.i46.us = phi i32 [ %77, %76 ], [ %75, %74 ], [ %70, %63 ], [ %60, %62 ]
  %78 = getelementptr inbounds nuw i8, ptr %.04056.us, i64 4
  store i32 %.sroa.0.0.i.i46.us, ptr %78, align 4, !tbaa !39
  %79 = getelementptr inbounds nuw i16, ptr %28, i64 %indvars.iv
  %80 = load i16, ptr %79, align 2, !tbaa !36
  %81 = zext i16 %80 to i32
  %82 = shl nuw nsw i32 %81, 13
  %83 = and i32 %82, 268427264
  %.signext.i.i48.us = sext i16 %80 to i32
  %84 = and i32 %.signext.i.i48.us, -2147483648
  %85 = icmp samesign ugt i32 %83, 8388607
  br i1 %85, label %95, label %86, !prof !38

86:                                               ; preds = %half_to_float.exit47.us
  %.not.i.i49.us = icmp eq i32 %83, 0
  br i1 %.not.i.i49.us, label %half_to_float.exit51.us, label %87

87:                                               ; preds = %86
  %88 = tail call range(i32 9, 33) i32 @llvm.ctlz.i32(i32 %83, i1 true)
  %89 = add nsw i32 %88, -8
  %90 = shl i32 %83, %89
  %91 = or i32 %84, %90
  %92 = or i32 %91, 947912704
  %93 = shl nuw nsw i32 %89, 23
  %94 = sub nuw i32 %92, %93
  br label %half_to_float.exit51.us

95:                                               ; preds = %half_to_float.exit47.us
  %96 = or disjoint i32 %83, %84
  %97 = icmp samesign ult i32 %83, 260046848
  br i1 %97, label %100, label %98, !prof !38

98:                                               ; preds = %95
  %99 = or i32 %96, 2139095040
  br label %half_to_float.exit51.us

100:                                              ; preds = %95
  %101 = add nuw nsw i32 %96, 939524096
  br label %half_to_float.exit51.us

half_to_float.exit51.us:                          ; preds = %100, %98, %87, %86
  %.sroa.0.0.i.i50.us = phi i32 [ %101, %100 ], [ %99, %98 ], [ %94, %87 ], [ %84, %86 ]
  %102 = getelementptr inbounds nuw i8, ptr %.04056.us, i64 8
  store i32 %.sroa.0.0.i.i50.us, ptr %102, align 4, !tbaa !39
  %103 = getelementptr inbounds nuw i16, ptr %.04259.us, i64 %indvars.iv
  %104 = load i16, ptr %103, align 2, !tbaa !36
  %105 = zext i16 %104 to i32
  %106 = shl nuw nsw i32 %105, 13
  %107 = and i32 %106, 268427264
  %.signext.i.i52.us = sext i16 %104 to i32
  %108 = and i32 %.signext.i.i52.us, -2147483648
  %109 = icmp samesign ugt i32 %107, 8388607
  br i1 %109, label %119, label %110, !prof !38

110:                                              ; preds = %half_to_float.exit51.us
  %.not.i.i53.us = icmp eq i32 %107, 0
  br i1 %.not.i.i53.us, label %half_to_float.exit55.us, label %111

111:                                              ; preds = %110
  %112 = tail call range(i32 9, 33) i32 @llvm.ctlz.i32(i32 %107, i1 true)
  %113 = add nsw i32 %112, -8
  %114 = shl i32 %107, %113
  %115 = or i32 %108, %114
  %116 = or i32 %115, 947912704
  %117 = shl nuw nsw i32 %113, 23
  %118 = sub nuw i32 %116, %117
  br label %half_to_float.exit55.us

119:                                              ; preds = %half_to_float.exit51.us
  %120 = or disjoint i32 %107, %108
  %121 = icmp samesign ult i32 %107, 260046848
  br i1 %121, label %124, label %122, !prof !38

122:                                              ; preds = %119
  %123 = or i32 %120, 2139095040
  br label %half_to_float.exit55.us

124:                                              ; preds = %119
  %125 = add nuw nsw i32 %120, 939524096
  br label %half_to_float.exit55.us

half_to_float.exit55.us:                          ; preds = %124, %122, %111, %110
  %.sroa.0.0.i.i54.us = phi i32 [ %125, %124 ], [ %123, %122 ], [ %118, %111 ], [ %108, %110 ]
  %126 = getelementptr inbounds nuw i8, ptr %.04056.us, i64 12
  store i32 %.sroa.0.0.i.i54.us, ptr %126, align 4, !tbaa !39
  %127 = getelementptr inbounds nuw i8, ptr %.04056.us, i64 16
  %indvars.iv.next = add nuw nsw i64 %indvars.iv, 1
  %exitcond.not = icmp eq i64 %indvars.iv.next, %wide.trip.count
  br i1 %exitcond.not, label %._crit_edge.us, label %31, !llvm.loop !70

._crit_edge.us:                                   ; preds = %half_to_float.exit55.us
  %128 = getelementptr inbounds nuw i8, ptr %.04259.us, i64 %18
  %129 = getelementptr inbounds i8, ptr %.04358.us, i64 %20
  %130 = add nsw i32 %.04160.us, 1
  %131 = icmp slt i32 %130, %10
  br i1 %131, label %.lr.ph.us, label %._crit_edge63, !llvm.loop !71

._crit_edge63:                                    ; preds = %._crit_edge.us, %.lr.ph62, %1
  ret i32 0
}